target datalayout = "e-m:e-p270:32:32-p271:32:32-p272:64:64-i64:64-i128:128-f80:128-n8:16:32:64-S128"
target triple = "x86_64-pc-linux-gnu"

%"class.cxx20::expected.303" = type { %"struct.cxx20::detail::expected_move_assign_base.304" }
%"struct.cxx20::detail::expected_move_assign_base.304" = type { %"struct.cxx20::detail::expected_copy_assign_base.305" }
%"struct.cxx20::detail::expected_copy_assign_base.305" = type { %"struct.cxx20::detail::expected_move_base.306" }
%"struct.cxx20::detail::expected_move_base.306" = type { %"struct.cxx20::detail::expected_copy_base.307" }
%"struct.cxx20::detail::expected_copy_base.307" = type { %"struct.cxx20::detail::expected_operations_base.308" }
%"struct.cxx20::detail::expected_operations_base.308" = type { %"struct.cxx20::detail::expected_view_base.309" }
%"struct.cxx20::detail::expected_view_base.309" = type { %"struct.cxx20::detail::expected_storage_base.310" }
%"struct.cxx20::detail::expected_storage_base.310" = type { i8, %union.anon.311 }
%union.anon.311 = type { i32 }

; Function Attrs: mustprogress nounwind uwtable
define void @_ZN8WasmEdge8Executor8Executor16memoryAtomicWaitERNS_7Runtime12StackManagerEjjmlj(ptr dead_on_unwind noalias writable sret(%"class.cxx20::expected.303") align 4 %0, ptr noundef nonnull align 8 dereferenceable(408) %1, ptr noundef nonnull align 8 dereferenceable(48) %2, i32 noundef %3, i32 noundef %4, i64 noundef %5, i64 noundef %6, i32 noundef %7) #2 align 2 personality ptr @__gxx_personality_v0 {
  %9 = alloca ptr, align 8
  %10 = alloca ptr, align 8
  %11 = alloca ptr, align 8
  %12 = alloca i32, align 4
  %13 = alloca i32, align 4
  %14 = alloca i64, align 8
  %15 = alloca i64, align 8
  %16 = alloca i32, align 4
  %17 = alloca ptr, align 8
  store ptr %0, ptr %9, align 8
  store ptr %1, ptr %10, align 8
  store ptr %2, ptr %11, align 8
  store i32 %3, ptr %12, align 4
  store i32 %4, ptr %13, align 4
  store i64 %5, ptr %14, align 8
  store i64 %6, ptr %15, align 8
  store i32 %7, ptr %16, align 4
  %18 = load ptr, ptr %10, align 8
  %19 = load ptr, ptr %11, align 8
  %20 = load i32, ptr %12, align 4
  %21 = invoke noundef ptr @_ZNK8WasmEdge8Executor8Executor15getMemInstByIdxERNS_7Runtime12StackManagerEj(ptr noundef nonnull align 8 dereferenceable(408) %18, ptr noundef nonnull align 8 dereferenceable(48) %19, i32 noundef %20)
          to label %22 unwind label %48

22:                                               ; preds = %8
  store ptr %21, ptr %17, align 8
  %23 = load ptr, ptr %17, align 8
  %24 = icmp ne ptr %23, null
  br i1 %24, label %25, label %26

25:                                               ; preds = %22
  br label %28

26:                                               ; preds = %22
  unreachable

27:                                               ; No predecessors!
  br label %28

28:                                               ; preds = %27, %25
  %29 = load i32, ptr %16, align 4
  %30 = icmp eq i32 %29, 64
  br i1 %30, label %31, label %36

31:                                               ; preds = %28
  %32 = load ptr, ptr %17, align 8
  %33 = load i32, ptr %13, align 4
  %34 = load i64, ptr %14, align 8
  %35 = load i64, ptr %15, align 8
  call void @_ZN8WasmEdge8Executor8Executor10atomicWaitImEEN5cxx208expectedIjNS_7ErrCodeEEERNS_7Runtime8Instance14MemoryInstanceEjT_l(ptr dead_on_unwind writable sret(%"class.cxx20::expected.303") align 4 %0, ptr noundef nonnull align 8 dereferenceable(408) %18, ptr noundef nonnull align 8 dereferenceable(28) %32, i32 noundef %33, i64 noundef %34, i64 noundef %35) #18
  br label %47

36:                                               ; preds = %28
  %37 = load i32, ptr %16, align 4
  %38 = icmp eq i32 %37, 32
  br i1 %38, label %39, label %45

39:                                               ; preds = %36
  %40 = load ptr, ptr %17, align 8
  %41 = load i32, ptr %13, align 4
  %42 = load i64, ptr %14, align 8
  %43 = trunc i64 %42 to i32
  %44 = load i64, ptr %15, align 8
  call void @_ZN8WasmEdge8Executor8Executor10atomicWaitIjEEN5cxx208expectedIjNS_7ErrCodeEEERNS_7Runtime8Instance14MemoryInstanceEjT_l(ptr dead_on_unwind writable sret(%"class.cxx20::expected.303") align 4 %0, ptr noundef nonnull align 8 dereferenceable(408) %18, ptr noundef nonnull align 8 dereferenceable(28) %40, i32 noundef %41, i32 noundef %43, i64 noundef %44) #18
  br label %47

45:                                               ; preds = %36
  br label %46

46:                                               ; preds = %45
  unreachable

47:                                               ; preds = %39, %31
  ret void

48:                                               ; preds = %8
  %49 = landingpad { ptr, i32 }
          catch ptr null
  %50 = extractvalue { ptr, i32 } %49, 0
  call void @__clang_call_terminate(ptr %50) #20
  unreachable
}