; Function Attrs: mustprogress nounwind uwtable
define void @_ZN8WasmEdge8Executor8Executor16memoryAtomicWaitERNS_7Runtime12StackManagerEjjmlj(ptr dead_on_unwind noalias writable sret(%"class.cxx20::expected.303") align 4 %0, ptr noundef nonnull align 8 dereferenceable(408) %1, ptr noundef nonnull align 8 dereferenceable(48) %2, i32 noundef %3, i32 noundef %4, i64 noundef %5, i64 noundef %6, i32 noundef %7) local_unnamed_addr #4 align 2 personality ptr @__gxx_personality_v0 {
  %9 = invoke noundef ptr @_ZNK8WasmEdge8Executor8Executor15getMemInstByIdxERNS_7Runtime12StackManagerEj(ptr noundef nonnull align 8 dereferenceable(408) %1, ptr noundef nonnull align 8 dereferenceable(48) %2, i32 noundef %3)
          to label %10 unwind label %18

10:                                               ; preds = %8
  %11 = icmp ne ptr %9, null
  tail call void @llvm.assume(i1 %11)
  %12 = icmp eq i32 %7, 64
  br i1 %12, label %13, label %14

13:                                               ; preds = %10
  tail call void @_ZN8WasmEdge8Executor8Executor10atomicWaitImEEN5cxx208expectedIjNS_7ErrCodeEEERNS_7Runtime8Instance14MemoryInstanceEjT_l(ptr dead_on_unwind writable sret(%"class.cxx20::expected.303") align 4 %0, ptr noundef nonnull align 8 dereferenceable(408) %1, ptr noundef nonnull align 8 dereferenceable(28) %9, i32 noundef %4, i64 noundef %5, i64 noundef %6) #23
  br label %17

14:                                               ; preds = %10
  %15 = icmp eq i32 %7, 32
  tail call void @llvm.assume(i1 %15)
  %16 = trunc i64 %5 to i32
  tail call void @_ZN8WasmEdge8Executor8Executor10atomicWaitIjEEN5cxx208expectedIjNS_7ErrCodeEEERNS_7Runtime8Instance14MemoryInstanceEjT_l(ptr dead_on_unwind writable sret(%"class.cxx20::expected.303") align 4 %0, ptr noundef nonnull align 8 dereferenceable(408) %1, ptr noundef nonnull align 8 dereferenceable(28) %9, i32 noundef %4, i32 noundef %16, i64 noundef %6) #23
  br label %17

17:                                               ; preds = %14, %13
  ret void

18:                                               ; preds = %8
  %19 = landingpad { ptr, i32 }
          catch ptr null
  %20 = extractvalue { ptr, i32 } %19, 0
  tail call void @__clang_call_terminate(ptr %20) #24
  unreachable
}